target datalayout = "e-m:e-p270:32:32-p271:32:32-p272:64:64-i64:64-i128:128-f80:128-n8:16:32:64-S128"
target triple = "x86_64-pc-linux-gnu"

%struct._xmlNode = type { ptr, i32, ptr, ptr, ptr, ptr, ptr, ptr, ptr, ptr, ptr, ptr, ptr, ptr, i16, i16 }
%struct._zval_struct = type { %union._zend_value, %union.anon, %union.anon.2 }
%union._zend_value = type { i64 }
%union.anon = type { i32 }
%union.anon.2 = type { i32 }
%struct._dom_object = type { ptr, ptr, ptr, %struct._zend_object }
%struct._zend_object = type { %struct._zend_refcounted_h, i32, ptr, ptr, ptr, [1 x %struct._zval_struct] }
%struct._zend_refcounted_h = type { i32, %union.anon.3 }
%union.anon.3 = type { i32 }
%struct._php_libxml_ref_obj = type { ptr, ptr, %struct.php_libxml_cache_tag, i32, i8 }
%struct.php_libxml_cache_tag = type { i64 }

; Function Attrs: nounwind uwtable
define internal i32 @dom_child_removal_preconditions(ptr noundef %0, i32 noundef %1) #0 {
  %3 = alloca i32, align 4
  %4 = alloca ptr, align 8
  %5 = alloca i32, align 4
  %6 = alloca ptr, align 8
  store ptr %0, ptr %4, align 8
  store i32 %1, ptr %5, align 4
  %7 = load ptr, ptr %4, align 8
  %8 = call i32 @dom_node_is_read_only(ptr noundef %7)
  %9 = icmp eq i32 %8, 0
  br i1 %9, label %21, label %10

10:                                               ; preds = %2
  %11 = load ptr, ptr %4, align 8
  %12 = getelementptr inbounds %struct._xmlNode, ptr %11, i32 0, i32 5
  %13 = load ptr, ptr %12, align 8
  %14 = icmp ne ptr %13, null
  br i1 %14, label %15, label %23

15:                                               ; preds = %10
  %16 = load ptr, ptr %4, align 8
  %17 = getelementptr inbounds %struct._xmlNode, ptr %16, i32 0, i32 5
  %18 = load ptr, ptr %17, align 8
  %19 = call i32 @dom_node_is_read_only(ptr noundef %18)
  %20 = icmp eq i32 %19, 0
  br i1 %20, label %21, label %23

21:                                               ; preds = %15, %2
  %22 = load i32, ptr %5, align 4
  call void @php_dom_throw_error(i32 noundef 7, i32 noundef %22)
  store i32 -1, ptr %3, align 4
  br label %48

23:                                               ; preds = %15, %10
  %24 = load ptr, ptr %4, align 8
  %25 = getelementptr inbounds %struct._xmlNode, ptr %24, i32 0, i32 5
  %26 = load ptr, ptr %25, align 8
  %27 = icmp ne ptr %26, null
  br i1 %27, label %30, label %28

28:                                               ; preds = %23
  %29 = load i32, ptr %5, align 4
  call void @php_dom_throw_error(i32 noundef 8, i32 noundef %29)
  store i32 -1, ptr %3, align 4
  br label %48

30:                                               ; preds = %23
  %31 = load ptr, ptr %4, align 8
  %32 = getelementptr inbounds %struct._xmlNode, ptr %31, i32 0, i32 5
  %33 = load ptr, ptr %32, align 8
  %34 = call i32 @dom_node_children_valid(ptr noundef %33)
  %35 = icmp eq i32 %34, -1
  br i1 %35, label %36, label %37

36:                                               ; preds = %30
  store i32 -1, ptr %3, align 4
  br label %48

37:                                               ; preds = %30
  %38 = load ptr, ptr %4, align 8
  %39 = getelementptr inbounds %struct._xmlNode, ptr %38, i32 0, i32 5
  %40 = load ptr, ptr %39, align 8
  %41 = getelementptr inbounds %struct._xmlNode, ptr %40, i32 0, i32 3
  %42 = load ptr, ptr %41, align 8
  store ptr %42, ptr %6, align 8
  %43 = load ptr, ptr %6, align 8
  %44 = icmp ne ptr %43, null
  br i1 %44, label %47, label %45

45:                                               ; preds = %37
  %46 = load i32, ptr %5, align 4
  call void @php_dom_throw_error(i32 noundef 8, i32 noundef %46)
  store i32 -1, ptr %3, align 4
  br label %48

47:                                               ; preds = %37
  store i32 0, ptr %3, align 4
  br label %48

48:                                               ; preds = %47, %45, %36, %28, %21
  %49 = load i32, ptr %3, align 4
  ret i32 %49
}

; Function Attrs: nounwind uwtable
define hidden void @dom_child_node_remove(ptr noundef %0) #0 {
  %2 = alloca ptr, align 8
  %3 = alloca ptr, align 8
  %4 = alloca ptr, align 8
  %5 = alloca i32, align 4
  store ptr %0, ptr %3, align 8
  %6 = load ptr, ptr %3, align 8
  %7 = call ptr @dom_object_get_node(ptr noundef %6)
  store ptr %7, ptr %4, align 8
  %8 = load ptr, ptr %3, align 8
  %9 = getelementptr inbounds %struct._dom_object, ptr %8, i32 0, i32 1
  %10 = load ptr, ptr %9, align 8
  %11 = call i32 @dom_get_strict_error(ptr noundef %10)
  store i32 %11, ptr %5, align 4
  %12 = load ptr, ptr %4, align 8
  %13 = load i32, ptr %5, align 4
  %14 = call i32 @dom_child_removal_preconditions(ptr noundef %12, i32 noundef %13)
  %15 = icmp ne i32 %14, 0
  %16 = xor i1 %15, true
  %17 = xor i1 %16, true
  %18 = zext i1 %17 to i32
  %19 = sext i32 %18 to i64
  %20 = icmp ne i64 %19, 0
  br i1 %20, label %21, label %22

21:                                               ; preds = %1
  br label %36

22:                                               ; preds = %1
  %23 = load ptr, ptr %3, align 8
  %24 = getelementptr inbounds %struct._dom_object, ptr %23, i32 0, i32 1
  %25 = load ptr, ptr %24, align 8
  store ptr %25, ptr %2, align 8
  %26 = load ptr, ptr %2, align 8
  %27 = icmp ne ptr %26, null
  br i1 %27, label %29, label %28

28:                                               ; preds = %22
  br label %34

29:                                               ; preds = %22
  %30 = load ptr, ptr %2, align 8
  %31 = getelementptr inbounds %struct._php_libxml_ref_obj, ptr %30, i32 0, i32 2
  %32 = load i64, ptr %31, align 8
  %33 = add i64 %32, 1
  store i64 %33, ptr %31, align 8
  br label %34

34:                                               ; preds = %29, %28
  %35 = load ptr, ptr %4, align 8
  call void @xmlUnlinkNode(ptr noundef %35)
  br label %36

36:                                               ; preds = %34, %21
  ret void
}