; Function Attrs: nounwind uwtable
define hidden void @dom_child_node_remove(ptr noundef %0) local_unnamed_addr #0 {
  %2 = tail call ptr @dom_object_get_node(ptr noundef %0) #3
  %3 = getelementptr inbounds i8, ptr %0, i64 8
  %4 = load ptr, ptr %3, align 8
  %5 = tail call i32 @dom_get_strict_error(ptr noundef %4) #3
  %6 = tail call i32 @dom_node_is_read_only(ptr noundef %2) #3
  %7 = icmp eq i32 %6, 0
  br i1 %7, label %.sink.split.i, label %8

8:                                                ; preds = %1
  %9 = getelementptr inbounds i8, ptr %2, i64 40
  %10 = load ptr, ptr %9, align 8
  %.not.i = icmp eq ptr %10, null
  br i1 %.not.i, label %.sink.split.i, label %11

11:                                               ; preds = %8
  %12 = tail call i32 @dom_node_is_read_only(ptr noundef nonnull %10) #3
  %13 = icmp eq i32 %12, 0
  br i1 %13, label %.sink.split.i, label %14

14:                                               ; preds = %11
  %.pr.i = load ptr, ptr %9, align 8
  %.not12.i = icmp eq ptr %.pr.i, null
  br i1 %.not12.i, label %.sink.split.i, label %15

15:                                               ; preds = %14
  %16 = tail call i32 @dom_node_children_valid(ptr noundef nonnull %.pr.i) #3
  %17 = icmp eq i32 %16, -1
  br i1 %17, label %dom_child_removal_preconditions.exit.thread, label %18

18:                                               ; preds = %15
  %19 = load ptr, ptr %9, align 8
  %20 = getelementptr inbounds i8, ptr %19, i64 24
  %21 = load ptr, ptr %20, align 8
  %.not13.i = icmp eq ptr %21, null
  br i1 %.not13.i, label %.sink.split.i, label %dom_child_removal_preconditions.exit

.sink.split.i:                                    ; preds = %18, %14, %11, %8, %1
  %.sink.i = phi i32 [ 7, %11 ], [ 7, %1 ], [ 8, %8 ], [ 8, %14 ], [ 8, %18 ]
  tail call void @php_dom_throw_error(i32 noundef %.sink.i, i32 noundef %5) #3
  br label %dom_child_removal_preconditions.exit.thread

dom_child_removal_preconditions.exit:             ; preds = %18
  %22 = load ptr, ptr %3, align 8
  %.not7 = icmp eq ptr %22, null
  br i1 %.not7, label %27, label %23

23:                                               ; preds = %dom_child_removal_preconditions.exit
  %24 = getelementptr inbounds i8, ptr %22, i64 16
  %25 = load i64, ptr %24, align 8
  %26 = add i64 %25, 1
  store i64 %26, ptr %24, align 8
  br label %27

27:                                               ; preds = %dom_child_removal_preconditions.exit, %23
  tail call void @xmlUnlinkNode(ptr noundef nonnull %2) #3
  br label %dom_child_removal_preconditions.exit.thread

dom_child_removal_preconditions.exit.thread:      ; preds = %.sink.split.i, %15, %27
  ret void
}